target datalayout = "e-m:e-p270:32:32-p271:32:32-p272:64:64-i64:64-i128:128-f80:128-n8:16:32:64-S128"
target triple = "x86_64-pc-linux-gnu"

%struct.H5C_class_t = type { i32, ptr, i32, i32, ptr, ptr, ptr, ptr, ptr, ptr, ptr, ptr, ptr, ptr }
%struct.H5B2_internal_t = type { %struct.H5C_cache_entry_t, ptr, ptr, ptr, i16, i16, ptr, ptr, i64 }
%struct.H5C_cache_entry_t = type { ptr, i64, i64, ptr, i8, ptr, i8, i8, i8, i8, i32, i8, i8, i8, i8, i8, i32, ptr, i32, i32, i32, i32, i32, i8, i8, ptr, ptr, ptr, ptr, ptr, ptr, i8, i32, i8, i64, ptr, i64, i64, i32, i8, i32, i32, i8, ptr, ptr, ptr }
%struct.H5B2_hdr_t = type { %struct.H5C_cache_entry_t, %struct.H5B2_node_ptr_t, i8, i8, i32, i32, i16, i8, ptr, i64, i64, i64, i64, i8, i8, i8, ptr, ptr, ptr, ptr, ptr, ptr, ptr, i8, ptr, ptr, i64, ptr, ptr }
%struct.H5B2_node_ptr_t = type { i64, i16, i64 }

@H5B2_init_g = external global i8, align 1
@H5_libterm_g = external global i8, align 1
@.str.1 = private unnamed_addr constant [106 x i8] c"generated/home/dtcxzyw/WorkSpace/Projects/compilers/llvm-opt-benchmark/bench/hdf5/hdf5/src/H5B2internal.c\00", align 1
@H5E_BTREE_g = external global i64, align 8
@H5AC_BT2_INT = external constant [1 x %struct.H5C_class_t], align 16
@__func__.H5B2__shadow_internal = private unnamed_addr constant [22 x i8] c"H5B2__shadow_internal\00", align 1
@H5E_CANTALLOC_g = external global i64, align 8
@.str.39 = private unnamed_addr constant [50 x i8] c"unable to allocate file space to move B-tree node\00", align 1
@H5E_CANTMOVE_g = external global i64, align 8
@.str.40 = private unnamed_addr constant [27 x i8] c"unable to move B-tree node\00", align 1

; Function Attrs: nounwind uwtable
define internal i32 @H5B2__shadow_internal(ptr noundef %0, ptr noundef %1) #0 {
  %3 = alloca i32, align 4
  %4 = alloca ptr, align 8
  %5 = alloca ptr, align 8
  %6 = alloca ptr, align 8
  %7 = alloca i32, align 4
  %8 = alloca i8, align 1
  %9 = alloca i64, align 8
  %10 = alloca i32, align 4
  store ptr %0, ptr %4, align 8, !tbaa !11
  store ptr %1, ptr %5, align 8, !tbaa !8
  call void @llvm.lifetime.start.p0(i64 8, ptr %6) #5
  call void @llvm.lifetime.start.p0(i64 4, ptr %7) #5
  store i32 0, ptr %7, align 4, !tbaa !15
  call void @llvm.lifetime.start.p0(i64 1, ptr %8) #5
  store i8 0, ptr %8, align 1, !tbaa !13
  %11 = load i8, ptr @H5B2_init_g, align 1, !tbaa !13, !range !17, !noundef !18
  %12 = trunc i8 %11 to i1
  br i1 %12, label %17, label %13

13:                                               ; preds = %2
  %14 = load i8, ptr @H5_libterm_g, align 1, !tbaa !13, !range !17, !noundef !18
  %15 = trunc i8 %14 to i1
  %16 = xor i1 %15, true
  br label %17

17:                                               ; preds = %13, %2
  %18 = phi i1 [ true, %2 ], [ %16, %13 ]
  %19 = xor i1 %18, true
  %20 = xor i1 %19, true
  %21 = zext i1 %20 to i32
  %22 = sext i32 %21 to i64
  %23 = call i64 @llvm.expect.i64(i64 %22, i64 1)
  %24 = icmp ne i64 %23, 0
  br i1 %24, label %25, label %109

25:                                               ; preds = %17
  %26 = load ptr, ptr %4, align 8, !tbaa !11
  %27 = getelementptr inbounds nuw %struct.H5B2_internal_t, ptr %26, i32 0, i32 1
  %28 = load ptr, ptr %27, align 8, !tbaa !21
  store ptr %28, ptr %6, align 8, !tbaa !3
  %29 = load ptr, ptr %4, align 8, !tbaa !11
  %30 = getelementptr inbounds nuw %struct.H5B2_internal_t, ptr %29, i32 0, i32 8
  %31 = load i64, ptr %30, align 8, !tbaa !50
  %32 = load ptr, ptr %6, align 8, !tbaa !3
  %33 = getelementptr inbounds nuw %struct.H5B2_hdr_t, ptr %32, i32 0, i32 26
  %34 = load i64, ptr %33, align 8, !tbaa !49
  %35 = icmp ule i64 %31, %34
  br i1 %35, label %36, label %107

36:                                               ; preds = %25
  call void @llvm.lifetime.start.p0(i64 8, ptr %9) #5
  %37 = load ptr, ptr %6, align 8, !tbaa !3
  %38 = getelementptr inbounds nuw %struct.H5B2_hdr_t, ptr %37, i32 0, i32 8
  %39 = load ptr, ptr %38, align 8, !tbaa !51
  %40 = load ptr, ptr %6, align 8, !tbaa !3
  %41 = getelementptr inbounds nuw %struct.H5B2_hdr_t, ptr %40, i32 0, i32 4
  %42 = load i32, ptr %41, align 4, !tbaa !52
  %43 = zext i32 %42 to i64
  %44 = call i64 @H5MF_alloc(ptr noundef %39, i32 noundef 2, i64 noundef %43)
  store i64 %44, ptr %9, align 8, !tbaa !19
  %45 = icmp eq i64 -1, %44
  br i1 %45, label %46, label %65

46:                                               ; preds = %36
  br label %47

47:                                               ; preds = %46
  br label %48

48:                                               ; preds = %47
  br label %49

49:                                               ; preds = %48
  %50 = load i64, ptr @H5E_BTREE_g, align 8, !tbaa !19
  %51 = load i64, ptr @H5E_CANTALLOC_g, align 8, !tbaa !19
  %52 = call i32 (ptr, ptr, i32, i64, i64, ptr, ...) @H5E_printf_stack(ptr noundef @.str.1, ptr noundef @__func__.H5B2__shadow_internal, i32 noundef 752, i64 noundef %50, i64 noundef %51, ptr noundef @.str.39)
  br label %53

53:                                               ; preds = %49
  br label %54

54:                                               ; preds = %53
  store i8 1, ptr %8, align 1, !tbaa !13
  %55 = load i8, ptr %8, align 1, !tbaa !13, !range !17, !noundef !18
  %56 = trunc i8 %55 to i1
  %57 = zext i1 %56 to i8
  store i8 %57, ptr %8, align 1, !tbaa !13
  br label %58

58:                                               ; preds = %54
  br label %59

59:                                               ; preds = %58
  br label %60

60:                                               ; preds = %59
  store i32 -1, ptr %7, align 4, !tbaa !15
  store i32 10, ptr %10, align 4
  br label %104

61:                                               ; No predecessors!
  br label %62

62:                                               ; preds = %61
  br label %63

63:                                               ; preds = %62
  br label %64

64:                                               ; preds = %63
  br label %65

65:                                               ; preds = %64, %36
  %66 = load ptr, ptr %6, align 8, !tbaa !3
  %67 = getelementptr inbounds nuw %struct.H5B2_hdr_t, ptr %66, i32 0, i32 8
  %68 = load ptr, ptr %67, align 8, !tbaa !51
  %69 = load ptr, ptr %5, align 8, !tbaa !8
  %70 = getelementptr inbounds nuw %struct.H5B2_node_ptr_t, ptr %69, i32 0, i32 0
  %71 = load i64, ptr %70, align 8, !tbaa !53
  %72 = load i64, ptr %9, align 8, !tbaa !19
  %73 = call i32 @H5AC_move_entry(ptr noundef %68, ptr noundef @H5AC_BT2_INT, i64 noundef %71, i64 noundef %72)
  %74 = icmp slt i32 %73, 0
  br i1 %74, label %75, label %94

75:                                               ; preds = %65
  br label %76

76:                                               ; preds = %75
  br label %77

77:                                               ; preds = %76
  br label %78

78:                                               ; preds = %77
  %79 = load i64, ptr @H5E_BTREE_g, align 8, !tbaa !19
  %80 = load i64, ptr @H5E_CANTMOVE_g, align 8, !tbaa !19
  %81 = call i32 (ptr, ptr, i32, i64, i64, ptr, ...) @H5E_printf_stack(ptr noundef @.str.1, ptr noundef @__func__.H5B2__shadow_internal, i32 noundef 756, i64 noundef %79, i64 noundef %80, ptr noundef @.str.40)
  br label %82

82:                                               ; preds = %78
  br label %83

83:                                               ; preds = %82
  store i8 1, ptr %8, align 1, !tbaa !13
  %84 = load i8, ptr %8, align 1, !tbaa !13, !range !17, !noundef !18
  %85 = trunc i8 %84 to i1
  %86 = zext i1 %85 to i8
  store i8 %86, ptr %8, align 1, !tbaa !13
  br label %87

87:                                               ; preds = %83
  br label %88

88:                                               ; preds = %87
  br label %89

89:                                               ; preds = %88
  store i32 -1, ptr %7, align 4, !tbaa !15
  store i32 10, ptr %10, align 4
  br label %104

90:                                               ; No predecessors!
  br label %91

91:                                               ; preds = %90
  br label %92

92:                                               ; preds = %91
  br label %93

93:                                               ; preds = %92
  br label %94

94:                                               ; preds = %93, %65
  %95 = load i64, ptr %9, align 8, !tbaa !19
  %96 = load ptr, ptr %5, align 8, !tbaa !8
  %97 = getelementptr inbounds nuw %struct.H5B2_node_ptr_t, ptr %96, i32 0, i32 0
  store i64 %95, ptr %97, align 8, !tbaa !53
  %98 = load ptr, ptr %6, align 8, !tbaa !3
  %99 = getelementptr inbounds nuw %struct.H5B2_hdr_t, ptr %98, i32 0, i32 26
  %100 = load i64, ptr %99, align 8, !tbaa !49
  %101 = add i64 %100, 1
  %102 = load ptr, ptr %4, align 8, !tbaa !11
  %103 = getelementptr inbounds nuw %struct.H5B2_internal_t, ptr %102, i32 0, i32 8
  store i64 %101, ptr %103, align 8, !tbaa !50
  store i32 0, ptr %10, align 4
  br label %104

104:                                              ; preds = %89, %60, %94
  call void @llvm.lifetime.end.p0(i64 8, ptr %9) #5
  %105 = load i32, ptr %10, align 4
  switch i32 %105, label %111 [
    i32 0, label %106
    i32 10, label %108
  ]

106:                                              ; preds = %104
  br label %107

107:                                              ; preds = %106, %25
  br label %108

108:                                              ; preds = %107, %104
  br label %109

109:                                              ; preds = %108, %17
  %110 = load i32, ptr %7, align 4, !tbaa !15
  store i32 %110, ptr %3, align 4
  store i32 1, ptr %10, align 4
  br label %111

111:                                              ; preds = %109, %104
  call void @llvm.lifetime.end.p0(i64 1, ptr %8) #5
  call void @llvm.lifetime.end.p0(i64 4, ptr %7) #5
  call void @llvm.lifetime.end.p0(i64 8, ptr %6) #5
  %112 = load i32, ptr %3, align 4
  ret i32 %112
}