; Function Attrs: nounwind uwtable
define internal fastcc range(i32 -1, 1) i32 @H5B2__shadow_internal(ptr noundef nonnull captures(none) %0, ptr noundef captures(none) %1) unnamed_addr #0 {
  %3 = load i8, ptr @H5B2_init_g, align 1, !tbaa !3, !range !7, !noundef !8
  %4 = trunc nuw i8 %3 to i1
  %5 = load i8, ptr @H5_libterm_g, align 1, !range !7
  %6 = trunc nuw i8 %5 to i1
  %7 = xor i1 %6, true
  %8 = select i1 %4, i1 true, i1 %7
  br i1 %8, label %9, label %40, !prof !9

9:                                                ; preds = %2
  %10 = getelementptr inbounds nuw i8, ptr %0, i64 248
  %11 = load ptr, ptr %10, align 8, !tbaa !12
  %12 = getelementptr inbounds nuw i8, ptr %0, i64 296
  %13 = load i64, ptr %12, align 8, !tbaa !45
  %14 = getelementptr inbounds nuw i8, ptr %11, i64 416
  %15 = load i64, ptr %14, align 8, !tbaa !44
  %.not = icmp ugt i64 %13, %15
  br i1 %.not, label %40, label %16

16:                                               ; preds = %9
  %17 = getelementptr inbounds nuw i8, ptr %11, i64 288
  %18 = load ptr, ptr %17, align 8, !tbaa !46
  %19 = getelementptr inbounds nuw i8, ptr %11, i64 276
  %20 = load i32, ptr %19, align 4, !tbaa !47
  %21 = zext i32 %20 to i64
  %22 = tail call i64 @H5MF_alloc(ptr noundef %18, i32 noundef 2, i64 noundef %21) #4
  %23 = icmp eq i64 %22, -1
  br i1 %23, label %24, label %28

24:                                               ; preds = %16
  %25 = load i64, ptr @H5E_BTREE_g, align 8, !tbaa !10
  %26 = load i64, ptr @H5E_CANTALLOC_g, align 8, !tbaa !10
  %27 = tail call i32 (ptr, ptr, i32, i64, i64, ptr, ...) @H5E_printf_stack(ptr noundef nonnull @.str.1, ptr noundef nonnull @__func__.H5B2__shadow_internal, i32 noundef 752, i64 noundef %25, i64 noundef %26, ptr noundef nonnull @.str.39) #4
  br label %40

28:                                               ; preds = %16
  %29 = load ptr, ptr %17, align 8, !tbaa !46
  %30 = load i64, ptr %1, align 8, !tbaa !48
  %31 = tail call i32 @H5AC_move_entry(ptr noundef %29, ptr noundef nonnull @H5AC_BT2_INT, i64 noundef %30, i64 noundef %22) #4
  %32 = icmp slt i32 %31, 0
  br i1 %32, label %33, label %37

33:                                               ; preds = %28
  %34 = load i64, ptr @H5E_BTREE_g, align 8, !tbaa !10
  %35 = load i64, ptr @H5E_CANTMOVE_g, align 8, !tbaa !10
  %36 = tail call i32 (ptr, ptr, i32, i64, i64, ptr, ...) @H5E_printf_stack(ptr noundef nonnull @.str.1, ptr noundef nonnull @__func__.H5B2__shadow_internal, i32 noundef 756, i64 noundef %34, i64 noundef %35, ptr noundef nonnull @.str.40) #4
  br label %40

37:                                               ; preds = %28
  store i64 %22, ptr %1, align 8, !tbaa !48
  %38 = load i64, ptr %14, align 8, !tbaa !44
  %39 = add i64 %38, 1
  store i64 %39, ptr %12, align 8, !tbaa !45
  br label %40

40:                                               ; preds = %24, %33, %37, %2, %9
  %.016 = phi i32 [ 0, %9 ], [ 0, %2 ], [ -1, %24 ], [ -1, %33 ], [ 0, %37 ]
  ret i32 %.016
}